; Function Attrs: nounwind uwtable
define internal fastcc void @process_bin_flush(ptr noundef %0, ptr noundef nonnull readonly captures(none) %1) unnamed_addr #0 {
  %3 = load i8, ptr getelementptr inbounds nuw (i8, ptr @settings, i64 184), align 8, !tbaa !81, !range !53, !noundef !54
  %4 = trunc nuw i8 %3 to i1
  br i1 %4, label %15, label %5

5:                                                ; preds = %2
  %6 = load i32, ptr getelementptr inbounds nuw (i8, ptr @settings, i64 32), align 8, !tbaa !57
  %7 = icmp sgt i32 %6, 1
  br i1 %7, label %8, label %write_bin_error.exit

8:                                                ; preds = %5
  %9 = load ptr, ptr @stderr, align 8, !tbaa !58
  %10 = getelementptr inbounds nuw i8, ptr %0, i64 8
  %11 = load i32, ptr %10, align 8, !tbaa !37
  %12 = tail call i32 (ptr, ptr, ...) @fprintf(ptr noundef %9, ptr noundef nonnull @.str.17, i32 noundef %11, ptr noundef nonnull @.str.14) #12
  br label %write_bin_error.exit

write_bin_error.exit:                             ; preds = %8, %5
  tail call fastcc void @add_bin_header(ptr noundef %0, i16 noundef zeroext 32, i8 noundef zeroext 0, i16 noundef zeroext 0, i32 noundef 13)
  %13 = getelementptr inbounds nuw i8, ptr %0, i64 208
  %14 = load ptr, ptr %13, align 8, !tbaa !60
  tail call void @resp_add_iov(ptr noundef %14, ptr noundef nonnull @.str.14, i32 noundef 13) #11
  br label %write_bin_response.exit

15:                                               ; preds = %2
  %16 = getelementptr inbounds nuw i8, ptr %0, i64 340
  %17 = load i8, ptr %16, align 4, !tbaa !28
  %18 = icmp eq i8 %17, 4
  br i1 %18, label %19, label %.thread

19:                                               ; preds = %15
  %20 = getelementptr inbounds nuw i8, ptr %1, i64 24
  %21 = load i32, ptr %20, align 8, !tbaa !28
  %.not = icmp eq i32 %21, 0
  br i1 %.not, label %.thread, label %22

22:                                               ; preds = %19
  %23 = tail call noundef i32 @llvm.bswap.i32(i32 %21)
  %24 = zext i32 %23 to i64
  %25 = tail call i32 @realtime(i64 noundef %24) #11
  br label %27

.thread:                                          ; preds = %15, %19
  %26 = load volatile i32, ptr @current_time, align 4, !tbaa !32
  br label %27

27:                                               ; preds = %.thread, %22
  %.0.in = phi i32 [ %25, %22 ], [ %26, %.thread ]
  %.0 = add i32 %.0.in, -1
  store i32 %.0, ptr getelementptr inbounds nuw (i8, ptr @settings, i64 36), align 4, !tbaa !82
  tail call void @item_flush_expired() #11
  %28 = getelementptr inbounds nuw i8, ptr %0, i64 400
  %29 = load ptr, ptr %28, align 8, !tbaa !27
  %30 = getelementptr inbounds nuw i8, ptr %29, i64 360
  %31 = tail call i32 @pthread_mutex_lock(ptr noundef nonnull %30) #11
  %32 = load ptr, ptr %28, align 8, !tbaa !27
  %33 = getelementptr inbounds nuw i8, ptr %32, i64 504
  %34 = load i64, ptr %33, align 8, !tbaa !83
  %35 = add i64 %34, 1
  store i64 %35, ptr %33, align 8, !tbaa !83
  %36 = getelementptr inbounds nuw i8, ptr %32, i64 360
  %37 = tail call i32 @pthread_mutex_unlock(ptr noundef nonnull %36) #11
  %38 = getelementptr inbounds nuw i8, ptr %0, i64 308
  %39 = load i8, ptr %38, align 4, !tbaa !56, !range !53, !noundef !54
  %40 = trunc nuw i8 %39 to i1
  br i1 %40, label %41, label %44

41:                                               ; preds = %27
  %42 = getelementptr inbounds nuw i8, ptr %0, i64 376
  %43 = load i16, ptr %42, align 8, !tbaa !48
  switch i16 %43, label %write_bin_response.exit [
    i16 0, label %44
    i16 12, label %44
  ]

44:                                               ; preds = %41, %41, %27
  tail call fastcc void @add_bin_header(ptr noundef nonnull %0, i16 noundef zeroext 0, i8 noundef zeroext 0, i16 noundef zeroext 0, i32 noundef 0)
  br label %write_bin_response.exit

write_bin_response.exit:                          ; preds = %44, %41, %write_bin_error.exit
  %.sink = phi i32 [ 9, %write_bin_error.exit ], [ 1, %41 ], [ 1, %44 ]
  tail call void @conn_set_state(ptr noundef %0, i32 noundef %.sink) #11
  ret void
}